; Function Attrs: mustprogress uwtable
define hidden void @_ZN3smt17theory_array_base12assert_axiomEN3sat7literalES2_(ptr nocapture noundef nonnull readonly align 8 dereferenceable(249) %this, i32 %l1.coerce, i32 %l2.coerce) local_unnamed_addr #3 align 2 {
entry:
  %ls = alloca [2 x %"class.sat::literal"], align 4
  store i32 %l1.coerce, ptr %ls, align 4
  %arrayinit.element = getelementptr inbounds i8, ptr %ls, i64 4
  store i32 %l2.coerce, ptr %arrayinit.element, align 4
  %ctx.i = getelementptr inbounds i8, ptr %this, i64 16
  %0 = load ptr, ptr %ctx.i, align 8
  %m_id.i.i = getelementptr inbounds i8, ptr %this, i64 8
  %1 = load i32, ptr %m_id.i.i, align 8
  call void @_ZN3smt7context12mk_th_clauseEijPN3sat7literalEjP9parameterNS_11clause_kindE(ptr noundef nonnull align 8 dereferenceable(11616) %0, i32 noundef %1, i32 noundef 2, ptr noundef nonnull %ls, i32 noundef 0, ptr noundef null, i32 noundef 1)
  ret void
}